Certificate:
    Data:
        Version: 1 (0x0)
        Serial Number: 1 (0x1)
    Signature Algorithm: sha512WithRSAEncryption
        Issuer: C=US, ST=CA, O=Open vSwitch, OU=switchca, CN=OVS switchca CA Certificate (2018 Dec 09 21:13:59)
        Validity
            Not Before: Dec 10 05:14:00 2018 GMT
            Not After : Dec  7 05:14:00 2028 GMT
        Subject: C=US, ST=CA, O=Open vSwitch, OU=switchca, CN=OVS switchca CA Certificate (2018 Dec 09 21:13:59)
        Subject Public Key Info:
            Public Key Algorithm: rsaEncryption
                Public-Key: (2048 bit)
                Modulus:
                    00:e5:1a:80:a4:89:a7:2a:c4:99:68:ec:4c:5d:4f:
                    5b:b2:f5:2d:b8:57:f5:8d:51:1b:48:da:f8:c5:73:
                    3a:e6:98:1b:fa:0c:9a:4d:0a:6b:1d:c7:24:ac:f4:
                    af:38:7f:14:ed:ec:ff:73:ab:cd:4d:52:b0:3b:87:
                    03:db:c1:2d:13:fc:3f:02:bd:90:d3:87:6f:7f:86:
                    9f:f2:44:bc:fb:f3:d8:b7:d8:33:72:05:b6:eb:9a:
                    1f:72:97:c2:53:b4:9d:ed:64:33:da:1f:e2:e0:7e:
                    07:0c:c6:6a:70:37:96:8a:21:7e:5f:f3:b3:e2:4e:
                    d9:5d:e1:ac:cf:62:38:65:f2:2d:a9:40:7a:47:e1:
                    de:7f:1a:e7:e2:a7:dc:b1:5f:a7:4b:1a:21:52:a7:
                    e9:be:f2:da:e5:84:6a:16:93:cb:0a:26:48:de:fd:
                    5c:69:f9:b0:ae:90:56:61:a4:33:a0:b4:aa:c3:54:
                    ce:f3:81:db:08:83:22:8d:f5:04:7f:f0:a0:be:0f:
                    55:7a:e9:ba:9c:ce:a9:4e:ff:2a:69:35:c5:18:c3:
                    e1:3b:8a:62:64:b4:a6:37:d7:6a:2b:50:21:90:8c:
                    2f:8d:db:20:c8:39:9b:a1:7d:5f:30:3b:ac:61:15:
                    4e:ef:a9:ea:47:1a:ac:dc:c3:d8:82:4e:82:f4:00:
                    c3:15
                Exponent: 65537 (0x10001)
    Signature Algorithm: sha512WithRSAEncryption
         5e:84:8f:ba:7a:b7:5f:d4:1e:83:e2:47:61:3f:77:18:ca:06:
         6b:94:7d:13:0f:a9:a3:5f:f2:af:92:e4:74:91:87:bb:e4:34:
         10:56:24:de:09:5b:4c:5f:e3:6c:f7:e1:b0:24:b5:b5:d5:9d:
         2c:31:4f:a2:34:8f:99:5c:2f:ee:8d:bb:ce:c0:1f:6f:be:b0:
         e4:54:ae:d6:ea:13:14:0b:03:e5:75:f2:f6:e5:61:e2:29:94:
         db:ed:48:d6:cf:48:23:1a:b8:36:fe:b4:f0:b7:99:a2:8d:f4:
         41:71:75:ca:c5:9a:53:fb:5d:9c:38:a7:68:f0:d4:1b:81:2c:
         94:a4:18:ee:f6:ee:1b:b0:04:76:f3:89:be:2e:9e:b1:0f:b8:
         69:93:b8:a4:26:5d:cf:66:47:0a:81:63:e6:e5:e0:fe:92:cc:
         20:f4:03:b7:cd:db:6a:9f:4a:6f:0e:3a:57:22:49:89:40:fa:
         d7:f2:05:9e:fa:58:fe:73:f8:aa:29:e2:e2:0c:7a:d5:3b:3a:
         70:0a:9a:54:e1:87:39:30:1b:1a:78:d2:f4:ed:9f:b0:7d:09:
         33:94:6a:23:d2:9d:b4:7b:10:26:cb:2e:6f:d1:55:2a:29:47:
         58:f1:05:02:b4:4d:d7:dc:cb:5f:ec:85:02:82:df:1a:7e:bf:
         ef:3a:25:0c
-----BEGIN CERTIFICATE-----
MIIDeDCCAmACAQEwDQYJKoZIhvcNAQENBQAwgYExCzAJBgNVBAYTAlVTMQswCQYD
VQQIEwJDQTEVMBMGA1UEChMMT3BlbiB2U3dpdGNoMREwDwYDVQQLEwhzd2l0Y2hj
YTE7MDkGA1UEAxMyT1ZTIHN3aXRjaGNhIENBIENlcnRpZmljYXRlICgyMDE4IERl
YyAwOSAyMToxMzo1OSkwHhcNMTgxMjEwMDUxNDAwWhcNMjgxMjA3MDUxNDAwWjCB
gTELMAkGA1UEBhMCVVMxCzAJBgNVBAgTAkNBMRUwEwYDVQQKEwxPcGVuIHZTd2l0
Y2gxETAPBgNVBAsTCHN3aXRjaGNhMTswOQYDVQQDEzJPVlMgc3dpdGNoY2EgQ0Eg
Q2VydGlmaWNhdGUgKDIwMTggRGVjIDA5IDIxOjEzOjU5KTCCASIwDQYJKoZIhvcN
AQEBBQADggEPADCCAQoCggEBAOUagKSJpyrEmWjsTF1PW7L1LbhX9Y1RG0ja+MVz
OuaYG/oMmk0Kax3HJKz0rzh/FO3s/3OrzU1SsDuHA9vBLRP8PwK9kNOHb3+Gn/JE
vPvz2LfYM3IFtuuaH3KXwlO0ne1kM9of4uB+BwzGanA3loohfl/zs+JO2V3hrM9i
OGXyLalAekfh3n8a5+Kn3LFfp0saIVKn6b7y2uWEahaTywomSN79XGn5sK6QVmGk
M6C0qsNUzvOB2wiDIo31BH/woL4PVXrpupzOqU7/Kmk1xRjD4TuKYmS0pjfXaitQ
IZCML43bIMg5m6F9XzA7rGEVTu+p6kcarNzD2IJOgvQAwxUCAwEAATANBgkqhkiG
9w0BAQ0FAAOCAQEAXoSPunq3X9Qeg+JHYT93GMoGa5R9Ew+po1/yr5LkdJGHu+Q0
EFYk3glbTF/jbPfhsCS1tdWdLDFPojSPmVwv7o27zsAfb76w5FSu1uoTFAsD5XXy
9uVh4imU2+1I1s9IIxq4Nv608LeZoo30QXF1ysWaU/tdnDinaPDUG4EslKQY7vbu
G7AEdvOJvi6esQ+4aZO4pCZdz2ZHCoFj5uXg/pLMIPQDt83bap9Kbw46VyJJiUD6
1/IFnvpY/nP4qini4gx61Ts6cAqaVOGHOTAbGnjS9O2fsH0JM5RqI9KdtHsQJssu
b9FVKilHWPEFArRN19zLX+yFAoLfGn6/7zolDA==
-----END CERTIFICATE-----
