Certificate:
    Data:
        Version: 1 (0x0)
        Serial Number: 2 (0x2)
    Signature Algorithm: sha512WithRSAEncryption
        Issuer: C=US, ST=CA, O=Open vSwitch, OU=switchca, CN=OVS switchca CA Certificate (2018 Dec 09 21:13:59)
        Validity
            Not Before: Dec 10 05:14:18 2018 GMT
            Not After : Dec  7 05:14:18 2028 GMT
        Subject: C=US, ST=CA, O=Open vSwitch, OU=Open vSwitch certifier, CN=localhost
        Subject Public Key Info:
            Public Key Algorithm: rsaEncryption
                Public-Key: (2048 bit)
                Modulus:
                    00:c5:6c:41:bd:ce:c3:4a:80:fc:d5:85:fa:cc:d2:
                    22:aa:a8:86:e4:0a:da:1d:57:bf:f1:dc:44:a7:1c:
                    c2:a1:62:e7:1c:af:fe:67:7d:33:a8:15:ae:0a:c8:
                    09:02:f8:39:cc:79:65:08:62:65:f3:b8:17:6f:0b:
                    03:67:27:cc:7f:8f:87:a9:e4:53:b6:f4:f3:d5:4e:
                    06:75:28:cc:5c:f8:bd:02:20:32:75:7c:28:3b:70:
                    c1:74:26:b4:4a:ff:c9:41:ba:8b:13:79:b2:87:36:
                    ec:f5:37:6a:94:15:0b:25:bb:e3:3d:57:e2:1c:64:
                    ec:94:08:49:6b:6f:3e:90:4a:d8:a8:2f:6e:8d:ce:
                    0d:7d:ee:de:54:41:87:e2:56:7a:46:72:d6:84:ab:
                    61:c6:4a:b1:86:57:3c:d0:77:d9:b3:81:04:e0:5f:
                    fc:bb:71:7c:83:b8:32:4b:5f:10:79:ef:98:f7:61:
                    1c:cc:3e:03:df:de:a7:b3:3b:4a:fb:f4:7c:1e:93:
                    1c:e5:20:40:90:40:70:7b:0e:7e:cf:cd:0f:61:67:
                    c0:83:89:3d:8f:39:c7:f4:85:89:48:1d:40:1b:26:
                    ac:3e:b4:69:27:67:5f:19:fe:81:e6:f8:04:c6:44:
                    8d:e1:4d:b6:c4:e1:7e:78:a5:6f:9b:00:9b:04:70:
                    a2:e7
                Exponent: 65537 (0x10001)
    Signature Algorithm: sha512WithRSAEncryption
         1d:ee:1c:22:3c:63:50:0c:c5:1e:83:e9:fa:51:6d:0a:c7:3a:
         6a:6b:a7:81:be:7a:7c:59:2c:4b:59:f7:52:c0:65:8f:78:cd:
         72:3a:29:ef:a8:c0:a1:53:aa:2a:8e:6f:48:86:ee:ae:26:52:
         57:6e:3f:0b:ad:81:32:98:48:31:1a:dd:46:87:0f:3f:cd:10:
         93:3b:74:25:35:88:d9:15:0f:cc:79:51:f0:ee:a4:8a:63:67:
         34:7c:f6:51:22:45:31:8d:19:a1:50:dd:6e:83:3f:4b:13:27:
         41:f1:01:74:3c:69:40:9b:57:30:61:a8:7b:93:10:61:30:ca:
         dd:84:5f:16:3c:55:9a:4f:ce:72:a3:19:80:62:87:4d:d6:31:
         55:ee:09:44:7d:ef:31:bf:4a:5b:e4:51:48:ac:f9:10:ab:45:
         dc:ca:09:c2:c3:e9:66:f5:ab:fd:c2:43:c8:37:6d:7f:4d:bd:
         b4:d6:be:76:cc:cd:69:2e:66:d0:27:fd:ce:6c:37:89:88:76:
         80:f7:9e:23:04:f7:32:a8:55:8c:3c:d0:5d:df:34:4a:37:1d:
         4f:a5:db:bb:b2:87:f3:e9:02:d6:e6:77:86:cd:78:42:ed:fd:
         81:10:d2:fb:38:8d:1f:2d:75:8a:51:d6:c1:f3:43:eb:72:a1:
         63:91:ab:19
-----BEGIN CERTIFICATE-----
MIIDXDCCAkQCAQIwDQYJKoZIhvcNAQENBQAwgYExCzAJBgNVBAYTAlVTMQswCQYD
VQQIEwJDQTEVMBMGA1UEChMMT3BlbiB2U3dpdGNoMREwDwYDVQQLEwhzd2l0Y2hj
YTE7MDkGA1UEAxMyT1ZTIHN3aXRjaGNhIENBIENlcnRpZmljYXRlICgyMDE4IERl
YyAwOSAyMToxMzo1OSkwHhcNMTgxMjEwMDUxNDE4WhcNMjgxMjA3MDUxNDE4WjBm
MQswCQYDVQQGEwJVUzELMAkGA1UECBMCQ0ExFTATBgNVBAoTDE9wZW4gdlN3aXRj
aDEfMB0GA1UECxMWT3BlbiB2U3dpdGNoIGNlcnRpZmllcjESMBAGA1UEAxMJbG9j
YWxob3N0MIIBIjANBgkqhkiG9w0BAQEFAAOCAQ8AMIIBCgKCAQEAxWxBvc7DSoD8
1YX6zNIiqqiG5AraHVe/8dxEpxzCoWLnHK/+Z30zqBWuCsgJAvg5zHllCGJl87gX
bwsDZyfMf4+HqeRTtvTz1U4GdSjMXPi9AiAydXwoO3DBdCa0Sv/JQbqLE3myhzbs
9TdqlBULJbvjPVfiHGTslAhJa28+kErYqC9ujc4Nfe7eVEGH4lZ6RnLWhKthxkqx
hlc80HfZs4EE4F/8u3F8g7gyS18Qee+Y92EczD4D396nsztK+/R8HpMc5SBAkEBw
ew5+z80PYWfAg4k9jznH9IWJSB1AGyasPrRpJ2dfGf6B5vgExkSN4U22xOF+eKVv
mwCbBHCi5wIDAQABMA0GCSqGSIb3DQEBDQUAA4IBAQAd7hwiPGNQDMUeg+n6UW0K
xzpqa6eBvnp8WSxLWfdSwGWPeM1yOinvqMChU6oqjm9Ihu6uJlJXbj8LrYEymEgx
Gt1Ghw8/zRCTO3QlNYjZFQ/MeVHw7qSKY2c0fPZRIkUxjRmhUN1ugz9LEydB8QF0
PGlAm1cwYah7kxBhMMrdhF8WPFWaT85yoxmAYodN1jFV7glEfe8xv0pb5FFIrPkQ
q0XcygnCw+lm9av9wkPIN21/Tb201r52zM1pLmbQJ/3ObDeJiHaA954jBPcyqFWM
PNBd3zRKNx1Ppdu7sofz6QLW5neGzXhC7f2BENL7OI0fLXWKUdbB80PrcqFjkasZ
-----END CERTIFICATE-----
